target datalayout = "e-m:e-p270:32:32-p271:32:32-p272:64:64-i64:64-i128:128-f80:128-n8:16:32:64-S128"
target triple = "x86_64-pc-linux-gnu"

%struct.eventop = type { ptr, ptr, ptr, ptr, ptr, ptr, i32, i32, i64 }
%struct.event_base = type { ptr, ptr, %struct.event_changelist, ptr, %struct.evsig_info, i32, i32, i32, i32, i32, i32, i32, i32, i32, i32, i32, i32, ptr, i32, %struct.evcallback_list, ptr, i32, i32, %struct.event_signal_map, %struct.event_signal_map, %struct.min_heap, %struct.timeval, %struct.evutil_monotonic_timer, %struct.timeval, i64, i64, ptr, ptr, i32, ptr, i32, %struct.timeval, i32, i32, i32, [2 x i32], %struct.event, ptr, %struct.evutil_weakrand_state, %struct.once_event_list, [2 x %struct.evwatch_list] }
%struct.event_changelist = type { ptr, i32, i32 }
%struct.evsig_info = type { %struct.event, [2 x i32], i32, i32, [65 x ptr], ptr, i32 }
%struct.evcallback_list = type { ptr, ptr }
%struct.event_signal_map = type { ptr, i32 }
%struct.min_heap = type { ptr, i64, i64 }
%struct.evutil_monotonic_timer = type { i32, %struct.timeval, %struct.timeval }
%struct.timeval = type { i64, i64 }
%struct.event = type { %struct.event_callback, %union.anon.0, i32, i16, i16, ptr, %union.anon.2, %struct.timeval }
%struct.event_callback = type { %struct.anon, i16, i8, i8, %union.anon, ptr }
%struct.anon = type { ptr, ptr }
%union.anon = type { ptr }
%union.anon.0 = type { %struct.anon.1 }
%struct.anon.1 = type { ptr, ptr }
%union.anon.2 = type { %struct.anon.3 }
%struct.anon.3 = type { %struct.anon.4, %struct.timeval }
%struct.anon.4 = type { ptr, ptr }
%struct.evutil_weakrand_state = type { i32 }
%struct.once_event_list = type { ptr }
%struct.evwatch_list = type { ptr, ptr }

@.str = private unnamed_addr constant [19 x i8] c"EVENT_USE_SIGNALFD\00", align 1
@sigfdops = internal constant %struct.eventop { ptr @.str.1, ptr null, ptr @sigfd_add, ptr @sigfd_del, ptr null, ptr null, i32 0, i32 0, i64 0 }, align 8

; Function Attrs: nounwind uwtable
define hidden i32 @sigfd_init_(ptr noundef %0) #0 {
  %2 = alloca i32, align 4
  %3 = alloca ptr, align 8
  store ptr %0, ptr %3, align 8
  br label %4

4:                                                ; preds = %1
  br label %5

5:                                                ; preds = %4
  %6 = load ptr, ptr %3, align 8
  %7 = getelementptr inbounds nuw %struct.event_base, ptr %6, i32 0, i32 35
  %8 = load i32, ptr %7, align 8
  %9 = and i32 %8, 128
  %10 = icmp ne i32 %9, 0
  br i1 %10, label %15, label %11

11:                                               ; preds = %5
  %12 = call ptr @getenv(ptr noundef @.str) #4
  %13 = icmp ne ptr %12, null
  br i1 %13, label %15, label %14

14:                                               ; preds = %11
  store i32 -1, ptr %2, align 4
  br label %18

15:                                               ; preds = %11, %5
  %16 = load ptr, ptr %3, align 8
  %17 = getelementptr inbounds nuw %struct.event_base, ptr %16, i32 0, i32 3
  store ptr @sigfdops, ptr %17, align 8
  store i32 0, ptr %2, align 4
  br label %18

18:                                               ; preds = %15, %14
  %19 = load i32, ptr %2, align 4
  ret i32 %19
}