; Function Attrs: nofree nounwind memory(read, argmem: readwrite) uwtable
define hidden range(i32 -1, 1) i32 @sigfd_init_(ptr noundef captures(none) %0) local_unnamed_addr #0 {
  %2 = getelementptr inbounds nuw i8, ptr %0, i64 984
  %3 = load i32, ptr %2, align 8
  %4 = and i32 %3, 128
  %.not = icmp eq i32 %4, 0
  br i1 %.not, label %5, label %7

5:                                                ; preds = %1
  %6 = tail call ptr @getenv(ptr noundef nonnull @.str) #7
  %.not2 = icmp eq ptr %6, null
  br i1 %.not2, label %9, label %7

7:                                                ; preds = %5, %1
  %8 = getelementptr inbounds nuw i8, ptr %0, i64 32
  store ptr @sigfdops, ptr %8, align 8
  br label %9

9:                                                ; preds = %5, %7
  %.0 = phi i32 [ 0, %7 ], [ -1, %5 ]
  ret i32 %.0
}